; Function Attrs: nounwind uwtable
define dso_local ptr @lua_setlocal(ptr noundef captures(none) %0, ptr noundef readonly captures(none) %1, i32 noundef %2) local_unnamed_addr #4 {
  %4 = alloca ptr, align 8
  call void @llvm.lifetime.start.p0(i64 8, ptr nonnull %4) #11
  store ptr null, ptr %4, align 8, !tbaa !35
  %5 = getelementptr i8, ptr %1, i64 116
  %.val = load i32, ptr %5, align 4, !tbaa !56
  %6 = call fastcc ptr @debug_localname(ptr noundef %0, i32 %.val, ptr noundef %4, i32 noundef %2)
  %7 = load ptr, ptr %4, align 8, !tbaa !35
  %.not = icmp eq ptr %7, null
  br i1 %.not, label %13, label %8

8:                                                ; preds = %3
  %9 = getelementptr inbounds nuw i8, ptr %0, i64 40
  %10 = load ptr, ptr %9, align 8, !tbaa !58
  %11 = getelementptr inbounds i8, ptr %10, i64 -8
  %12 = load i64, ptr %11, align 8, !tbaa !15
  store i64 %12, ptr %6, align 8, !tbaa !15
  br label %13

13:                                               ; preds = %8, %3
  %14 = getelementptr inbounds nuw i8, ptr %0, i64 40
  %15 = load ptr, ptr %14, align 8, !tbaa !58
  %16 = getelementptr inbounds i8, ptr %15, i64 -8
  store ptr %16, ptr %14, align 8, !tbaa !58
  call void @llvm.lifetime.end.p0(i64 8, ptr nonnull %4) #11
  ret ptr %7
}